target datalayout = "e-m:e-p270:32:32-p271:32:32-p272:64:64-i64:64-i128:128-f80:128-n8:16:32:64-S128"
target triple = "x86_64-pc-linux-gnu"

%struct.expert_field = type { i32, i32 }
%struct._packet_info = type { ptr, ptr, i32, i32, %struct.nstime_t, %struct.nstime_t, %struct.nstime_t, i8, ptr, ptr, ptr, ptr, %struct._address, %struct._address, %struct._address, %struct._address, %struct._address, %struct._address, i32, ptr, i8, [3 x i8], %struct.anon, i32, i32, i32, i32, ptr, i8, ptr, ptr, i16, i16, i32, i32, i16, i32, i32, ptr, ptr, ptr, i8, i8, i16, i16, i16, i32, i16, i16, ptr, ptr, ptr, ptr, ptr, i32, i32 }
%struct.nstime_t = type { i64, i32 }
%struct._address = type { i32, i32, ptr, ptr }
%struct.anon = type { i8, [3 x i8] }
%struct._frame_data = type <{ i32, i32, i32, i32, i32, [4 x i8], i64, ptr, ptr, ptr, i8, i16, [5 x i8], %struct.nstime_t, %struct.nstime_t, i32, i32 }>
%struct._control_proc_info_t = type { [5 x i32], i8, i32, i32, i16 }
%struct._proto_node = type { ptr, ptr, ptr, ptr, ptr, ptr, ptr }
%struct.field_info = type { ptr, i32, i32, i32, i32, i32, i32, ptr, ptr, ptr, i32, i32 }

@hf_response_in_frame = internal global i32 0, align 4
@ei_control_proc_overlapping = internal global %struct.expert_field zeroinitializer, align 4
@ei_control_proc_invalid_collision = internal global %struct.expert_field zeroinitializer, align 4

; Function Attrs: nounwind null_pointer_is_valid sspstrong uwtable
define internal zeroext i1 @control_proc_contains_instant(i8 noundef zeroext %0) #3 {
  %2 = alloca i1, align 1
  %3 = alloca i8, align 1
  store i8 %0, ptr %3, align 1
  %4 = load i8, ptr %3, align 1
  %5 = zext i8 %4 to i32
  switch i32 %5, label %7 [
    i32 0, label %6
    i32 1, label %6
    i32 15, label %6
    i32 22, label %6
  ]

6:                                                ; preds = %1, %1, %1, %1
  store i1 true, ptr %2, align 1
  br label %8

7:                                                ; preds = %1
  store i1 false, ptr %2, align 1
  br label %8

8:                                                ; preds = %7, %6
  %9 = load i1, ptr %2, align 1
  ret i1 %9
}

; Function Attrs: nounwind null_pointer_is_valid sspstrong uwtable
define internal zeroext i1 @control_proc_is_complete(i32 noundef %0, ptr noundef %1) #3 {
  %3 = alloca i1, align 1
  %4 = alloca i32, align 4
  %5 = alloca ptr, align 8
  store i32 %0, ptr %4, align 4
  store ptr %1, ptr %5, align 8
  %6 = load ptr, ptr %5, align 8
  %7 = getelementptr inbounds nuw %struct._control_proc_info_t, ptr %6, i32 0, i32 2
  %8 = load i32, ptr %7, align 4
  %9 = icmp ne i32 %8, 0
  br i1 %9, label %10, label %17

10:                                               ; preds = %2
  %11 = load i32, ptr %4, align 4
  %12 = load ptr, ptr %5, align 8
  %13 = getelementptr inbounds nuw %struct._control_proc_info_t, ptr %12, i32 0, i32 2
  %14 = load i32, ptr %13, align 4
  %15 = icmp ugt i32 %11, %14
  br i1 %15, label %16, label %17

16:                                               ; preds = %10
  store i1 true, ptr %3, align 1
  br label %18

17:                                               ; preds = %10, %2
  store i1 false, ptr %3, align 1
  br label %18

18:                                               ; preds = %17, %16
  %19 = load i1, ptr %3, align 1
  ret i1 %19
}

; Function Attrs: inlinehint nounwind null_pointer_is_valid sspstrong uwtable
define internal void @proto_item_set_generated(ptr noundef %0) #5 {
  %2 = alloca ptr, align 8
  store ptr %0, ptr %2, align 8
  %3 = load ptr, ptr %2, align 8
  %4 = icmp ne ptr %3, null
  br i1 %4, label %5, label %24

5:                                                ; preds = %1
  br label %6

6:                                                ; preds = %5
  %7 = load ptr, ptr %2, align 8
  %8 = getelementptr inbounds nuw %struct._proto_node, ptr %7, i32 0, i32 5
  %9 = load ptr, ptr %8, align 8
  %10 = icmp ne ptr %9, null
  br i1 %10, label %11, label %22

11:                                               ; preds = %6
  %12 = load ptr, ptr %2, align 8
  %13 = getelementptr inbounds nuw %struct._proto_node, ptr %12, i32 0, i32 5
  %14 = load ptr, ptr %13, align 8
  %15 = getelementptr inbounds nuw %struct.field_info, ptr %14, i32 0, i32 6
  %16 = load i32, ptr %15, align 4
  %17 = or i32 %16, 2
  %18 = load ptr, ptr %2, align 8
  %19 = getelementptr inbounds nuw %struct._proto_node, ptr %18, i32 0, i32 5
  %20 = load ptr, ptr %19, align 8
  %21 = getelementptr inbounds nuw %struct.field_info, ptr %20, i32 0, i32 6
  store i32 %17, ptr %21, align 4
  br label %22

22:                                               ; preds = %11, %6
  br label %23

23:                                               ; preds = %22
  br label %24

24:                                               ; preds = %23, %1
  ret void
}

; Function Attrs: alwaysinline nounwind
define internal ptr @memset.inline(ptr %0, i32 %1, i64 %2) #6 {
  %4 = alloca ptr, align 8
  %5 = alloca i32, align 4
  %6 = alloca i64, align 8
  store ptr %0, ptr %4, align 8
  store i32 %1, ptr %5, align 4
  store i64 %2, ptr %6, align 8
  %7 = load ptr, ptr %4, align 8
  %8 = load i32, ptr %5, align 4
  %9 = load i64, ptr %6, align 8
  %10 = load ptr, ptr %4, align 8
  %11 = call i64 @llvm.objectsize.i64.p0(ptr %10, i1 false, i1 true, i1 true)
  %12 = call ptr @__memset_chk(ptr noundef %7, i32 noundef %8, i64 noundef %9, i64 noundef %11) #13
  ret ptr %12
}

; Function Attrs: null_pointer_is_valid sspstrong uwtable
define internal zeroext i1 @control_proc_invalid_collision(ptr noundef %0, ptr noundef %1, i8 noundef zeroext %2) #0 {
  %4 = alloca i1, align 1
  %5 = alloca ptr, align 8
  %6 = alloca ptr, align 8
  %7 = alloca i8, align 1
  store ptr %0, ptr %5, align 8
  store ptr %1, ptr %6, align 8
  store i8 %2, ptr %7, align 1
  %8 = load ptr, ptr %6, align 8
  %9 = icmp ne ptr %8, null
  br i1 %9, label %11, label %10

10:                                               ; preds = %3
  store i1 false, ptr %4, align 1
  br label %44

11:                                               ; preds = %3
  %12 = load ptr, ptr %5, align 8
  %13 = getelementptr inbounds nuw %struct._packet_info, ptr %12, i32 0, i32 3
  %14 = load i32, ptr %13, align 4
  %15 = load ptr, ptr %6, align 8
  %16 = call zeroext i1 @control_proc_is_complete(i32 noundef %14, ptr noundef %15)
  br i1 %16, label %17, label %18

17:                                               ; preds = %11
  store i1 false, ptr %4, align 1
  br label %44

18:                                               ; preds = %11
  %19 = load ptr, ptr %6, align 8
  %20 = getelementptr inbounds nuw %struct._control_proc_info_t, ptr %19, i32 0, i32 1
  %21 = load i8, ptr %20, align 4
  %22 = call zeroext i1 @control_proc_contains_instant(i8 noundef zeroext %21)
  br i1 %22, label %23, label %26

23:                                               ; preds = %18
  %24 = load i8, ptr %7, align 1
  %25 = call zeroext i1 @control_proc_contains_instant(i8 noundef zeroext %24)
  br i1 %25, label %27, label %26

26:                                               ; preds = %23, %18
  store i1 false, ptr %4, align 1
  br label %44

27:                                               ; preds = %23
  %28 = load ptr, ptr %6, align 8
  %29 = getelementptr inbounds nuw %struct._control_proc_info_t, ptr %28, i32 0, i32 0
  %30 = getelementptr [5 x i32], ptr %29, i64 0, i64 1
  %31 = load i32, ptr %30, align 4
  %32 = icmp ne i32 %31, 0
  br i1 %32, label %33, label %43

33:                                               ; preds = %27
  %34 = load ptr, ptr %6, align 8
  %35 = getelementptr inbounds nuw %struct._control_proc_info_t, ptr %34, i32 0, i32 0
  %36 = getelementptr [5 x i32], ptr %35, i64 0, i64 1
  %37 = load i32, ptr %36, align 4
  %38 = load ptr, ptr %5, align 8
  %39 = getelementptr inbounds nuw %struct._packet_info, ptr %38, i32 0, i32 3
  %40 = load i32, ptr %39, align 4
  %41 = icmp ult i32 %37, %40
  br i1 %41, label %42, label %43

42:                                               ; preds = %33
  store i1 true, ptr %4, align 1
  br label %44

43:                                               ; preds = %33, %27
  store i1 false, ptr %4, align 1
  br label %44

44:                                               ; preds = %43, %42, %26, %17, %10
  %45 = load i1, ptr %4, align 1
  ret i1 %45
}

; Function Attrs: null_pointer_is_valid sspstrong uwtable
define internal ptr @control_proc_start(ptr noundef %0, ptr noundef %1, ptr noundef %2, ptr noundef %3, ptr noundef %4, ptr noundef %5, i8 noundef zeroext %6) #0 {
  %8 = alloca ptr, align 8
  %9 = alloca ptr, align 8
  %10 = alloca ptr, align 8
  %11 = alloca ptr, align 8
  %12 = alloca ptr, align 8
  %13 = alloca ptr, align 8
  %14 = alloca ptr, align 8
  %15 = alloca i8, align 1
  %16 = alloca ptr, align 8
  %17 = alloca i32, align 4
  %18 = alloca ptr, align 8
  %19 = alloca i32, align 4
  store ptr %0, ptr %9, align 8
  store ptr %1, ptr %10, align 8
  store ptr %2, ptr %11, align 8
  store ptr %3, ptr %12, align 8
  store ptr %4, ptr %13, align 8
  store ptr %5, ptr %14, align 8
  store i8 %6, ptr %15, align 1
  %20 = load ptr, ptr %10, align 8
  %21 = load ptr, ptr %14, align 8
  %22 = load i8, ptr %15, align 1
  %23 = call zeroext i1 @control_proc_invalid_collision(ptr noundef %20, ptr noundef %21, i8 noundef zeroext %22)
  br i1 %23, label %24, label %28

24:                                               ; preds = %7
  %25 = load ptr, ptr %10, align 8
  %26 = load ptr, ptr %12, align 8
  %27 = call ptr @expert_add_info(ptr noundef %25, ptr noundef %26, ptr noundef @ei_control_proc_invalid_collision)
  br label %28

28:                                               ; preds = %24, %7
  call void @llvm.lifetime.start.p0(i64 8, ptr %16) #13
  %29 = load ptr, ptr %10, align 8
  %30 = getelementptr inbounds nuw %struct._packet_info, ptr %29, i32 0, i32 8
  %31 = load ptr, ptr %30, align 8
  %32 = getelementptr inbounds nuw %struct._frame_data, ptr %31, i32 0, i32 11
  %33 = load i16, ptr %32, align 1
  %34 = lshr i16 %33, 3
  %35 = and i16 %34, 1
  %36 = zext i16 %35 to i32
  %37 = icmp ne i32 %36, 0
  br i1 %37, label %72, label %38

38:                                               ; preds = %28
  %39 = load ptr, ptr %13, align 8
  %40 = load ptr, ptr %10, align 8
  %41 = getelementptr inbounds nuw %struct._packet_info, ptr %40, i32 0, i32 3
  %42 = load i32, ptr %41, align 4
  %43 = call ptr @wmem_tree_lookup32_le(ptr noundef %39, i32 noundef %42)
  store ptr %43, ptr %16, align 8
  %44 = load ptr, ptr %16, align 8
  %45 = icmp ne ptr %44, null
  br i1 %45, label %46, label %52

46:                                               ; preds = %38
  %47 = load ptr, ptr %16, align 8
  %48 = getelementptr inbounds nuw %struct._control_proc_info_t, ptr %47, i32 0, i32 2
  %49 = load i32, ptr %48, align 4
  %50 = icmp eq i32 %49, 0
  br i1 %50, label %51, label %52

51:                                               ; preds = %46
  store ptr null, ptr %8, align 8
  store i32 1, ptr %17, align 4
  br label %126

52:                                               ; preds = %46, %38
  %53 = call ptr @wmem_file_scope()
  %54 = call noalias ptr @wmem_alloc0(ptr noundef %53, i64 noundef 36) #14
  store ptr %54, ptr %16, align 8
  %55 = load ptr, ptr %16, align 8
  %56 = call ptr @memset.inline(ptr noundef %55, i32 noundef 0, i64 noundef 36) #13
  %57 = load ptr, ptr %10, align 8
  %58 = getelementptr inbounds nuw %struct._packet_info, ptr %57, i32 0, i32 3
  %59 = load i32, ptr %58, align 4
  %60 = load ptr, ptr %16, align 8
  %61 = getelementptr inbounds nuw %struct._control_proc_info_t, ptr %60, i32 0, i32 0
  %62 = getelementptr [5 x i32], ptr %61, i64 0, i64 0
  store i32 %59, ptr %62, align 4
  %63 = load i8, ptr %15, align 1
  %64 = load ptr, ptr %16, align 8
  %65 = getelementptr inbounds nuw %struct._control_proc_info_t, ptr %64, i32 0, i32 1
  store i8 %63, ptr %65, align 4
  %66 = load ptr, ptr %13, align 8
  %67 = load ptr, ptr %10, align 8
  %68 = getelementptr inbounds nuw %struct._packet_info, ptr %67, i32 0, i32 3
  %69 = load i32, ptr %68, align 4
  %70 = load ptr, ptr %16, align 8
  call void @wmem_tree_insert32(ptr noundef %66, i32 noundef %69, ptr noundef %70)
  br label %71

71:                                               ; preds = %52
  br label %124

72:                                               ; preds = %28
  %73 = load ptr, ptr %13, align 8
  %74 = load ptr, ptr %10, align 8
  %75 = getelementptr inbounds nuw %struct._packet_info, ptr %74, i32 0, i32 3
  %76 = load i32, ptr %75, align 4
  %77 = call ptr @wmem_tree_lookup32(ptr noundef %73, i32 noundef %76)
  store ptr %77, ptr %16, align 8
  %78 = load ptr, ptr %16, align 8
  %79 = icmp ne ptr %78, null
  br i1 %79, label %80, label %119

80:                                               ; preds = %72
  %81 = load ptr, ptr %16, align 8
  %82 = getelementptr inbounds nuw %struct._control_proc_info_t, ptr %81, i32 0, i32 1
  %83 = load i8, ptr %82, align 4
  %84 = zext i8 %83 to i32
  %85 = load i8, ptr %15, align 1
  %86 = zext i8 %85 to i32
  %87 = icmp eq i32 %84, %86
  br i1 %87, label %88, label %119

88:                                               ; preds = %80
  call void @llvm.lifetime.start.p0(i64 8, ptr %18) #13
  call void @llvm.lifetime.start.p0(i64 4, ptr %19) #13
  store i32 1, ptr %19, align 4
  br label %89

89:                                               ; preds = %115, %88
  %90 = load i32, ptr %19, align 4
  %91 = zext i32 %90 to i64
  %92 = icmp ult i64 %91, 5
  br i1 %92, label %94, label %93

93:                                               ; preds = %89
  store i32 2, ptr %17, align 4
  call void @llvm.lifetime.end.p0(i64 4, ptr %19) #13
  br label %118

94:                                               ; preds = %89
  %95 = load ptr, ptr %16, align 8
  %96 = getelementptr inbounds nuw %struct._control_proc_info_t, ptr %95, i32 0, i32 0
  %97 = load i32, ptr %19, align 4
  %98 = zext i32 %97 to i64
  %99 = getelementptr [5 x i32], ptr %96, i64 0, i64 %98
  %100 = load i32, ptr %99, align 4
  %101 = icmp ne i32 %100, 0
  br i1 %101, label %102, label %114

102:                                              ; preds = %94
  %103 = load ptr, ptr %11, align 8
  %104 = load i32, ptr @hf_response_in_frame, align 4
  %105 = load ptr, ptr %9, align 8
  %106 = load ptr, ptr %16, align 8
  %107 = getelementptr inbounds nuw %struct._control_proc_info_t, ptr %106, i32 0, i32 0
  %108 = load i32, ptr %19, align 4
  %109 = zext i32 %108 to i64
  %110 = getelementptr [5 x i32], ptr %107, i64 0, i64 %109
  %111 = load i32, ptr %110, align 4
  %112 = call ptr @proto_tree_add_uint(ptr noundef %103, i32 noundef %104, ptr noundef %105, i32 noundef 0, i32 noundef 0, i32 noundef %111)
  store ptr %112, ptr %18, align 8
  %113 = load ptr, ptr %18, align 8
  call void @proto_item_set_generated(ptr noundef %113)
  br label %114

114:                                              ; preds = %102, %94
  br label %115

115:                                              ; preds = %114
  %116 = load i32, ptr %19, align 4
  %117 = add i32 %116, 1
  store i32 %117, ptr %19, align 4
  br label %89, !llvm.loop !8

118:                                              ; preds = %93
  call void @llvm.lifetime.end.p0(i64 8, ptr %18) #13
  br label %123

119:                                              ; preds = %80, %72
  %120 = load ptr, ptr %10, align 8
  %121 = load ptr, ptr %12, align 8
  %122 = call ptr @expert_add_info(ptr noundef %120, ptr noundef %121, ptr noundef @ei_control_proc_overlapping)
  store ptr null, ptr %8, align 8
  store i32 1, ptr %17, align 4
  br label %126

123:                                              ; preds = %118
  br label %124

124:                                              ; preds = %123, %71
  %125 = load ptr, ptr %16, align 8
  store ptr %125, ptr %8, align 8
  store i32 1, ptr %17, align 4
  br label %126

126:                                              ; preds = %124, %119, %51
  call void @llvm.lifetime.end.p0(i64 8, ptr %16) #13
  %127 = load ptr, ptr %8, align 8
  ret ptr %127
}