; Function Attrs: null_pointer_is_valid sspstrong uwtable
define internal fastcc ptr @control_proc_start(ptr noundef %0, ptr noundef %1, ptr noundef %2, ptr noundef %3, ptr noundef %4, ptr noundef readonly captures(address_is_null) %5, i8 noundef zeroext %6) unnamed_addr #0 {
  %.not.i = icmp eq ptr %5, null
  br i1 %.not.i, label %control_proc_invalid_collision.exit.thread, label %8

8:                                                ; preds = %7
  %9 = getelementptr inbounds nuw i8, ptr %1, i64 20
  %10 = load i32, ptr %9, align 4
  %11 = getelementptr i8, ptr %5, i64 24
  %.val.i = load i32, ptr %11, align 4
  %.not.i.i = icmp ne i32 %.val.i, 0
  %12 = icmp ugt i32 %10, %.val.i
  %or.cond.i.i = and i1 %.not.i.i, %12
  br i1 %or.cond.i.i, label %control_proc_invalid_collision.exit.thread, label %13

13:                                               ; preds = %8
  %14 = getelementptr inbounds nuw i8, ptr %5, i64 20
  %15 = load i8, ptr %14, align 4
  switch i8 %15, label %control_proc_invalid_collision.exit.thread [
    i8 0, label %16
    i8 1, label %16
    i8 15, label %16
    i8 22, label %16
  ]

16:                                               ; preds = %13, %13, %13, %13
  switch i8 %6, label %control_proc_invalid_collision.exit.thread [
    i8 0, label %control_proc_invalid_collision.exit
    i8 1, label %control_proc_invalid_collision.exit
    i8 15, label %control_proc_invalid_collision.exit
    i8 22, label %control_proc_invalid_collision.exit
  ]

control_proc_invalid_collision.exit:              ; preds = %16, %16, %16, %16
  %17 = getelementptr i8, ptr %5, i64 4
  %18 = load i32, ptr %17, align 4
  %.not10.i = icmp ne i32 %18, 0
  %19 = icmp ult i32 %18, %10
  %or.cond.i = and i1 %.not10.i, %19
  br i1 %or.cond.i, label %20, label %control_proc_invalid_collision.exit.thread

20:                                               ; preds = %control_proc_invalid_collision.exit
  %21 = tail call ptr @expert_add_info(ptr noundef %1, ptr noundef %3, ptr noundef nonnull @ei_control_proc_invalid_collision)
  br label %control_proc_invalid_collision.exit.thread

control_proc_invalid_collision.exit.thread:       ; preds = %16, %13, %8, %7, %20, %control_proc_invalid_collision.exit
  %22 = getelementptr inbounds nuw i8, ptr %1, i64 80
  %23 = load ptr, ptr %22, align 8
  %24 = getelementptr inbounds nuw i8, ptr %23, i64 57
  %25 = load i16, ptr %24, align 1
  %26 = and i16 %25, 8
  %.not = icmp eq i16 %26, 0
  %27 = getelementptr inbounds nuw i8, ptr %1, i64 20
  %28 = load i32, ptr %27, align 4
  br i1 %.not, label %29, label %41

29:                                               ; preds = %control_proc_invalid_collision.exit.thread
  %30 = tail call ptr @wmem_tree_lookup32_le(ptr noundef %4, i32 noundef %28)
  %.not41 = icmp eq ptr %30, null
  br i1 %.not41, label %35, label %31

31:                                               ; preds = %29
  %32 = getelementptr inbounds nuw i8, ptr %30, i64 24
  %33 = load i32, ptr %32, align 4
  %34 = icmp eq i32 %33, 0
  br i1 %34, label %.loopexit, label %35

35:                                               ; preds = %31, %29
  %36 = tail call ptr @wmem_file_scope()
  %37 = tail call noalias dereferenceable_or_null(36) ptr @wmem_alloc0(ptr noundef %36, i64 noundef 36) #13
  %38 = getelementptr inbounds nuw i8, ptr %37, i64 4
  tail call void @llvm.memset.p0.i64(ptr noundef nonnull align 1 dereferenceable(36) %38, i8 noundef 0, i64 noundef 32, i1 noundef false) #12
  %39 = load i32, ptr %27, align 4
  store i32 %39, ptr %37, align 4
  %40 = getelementptr inbounds nuw i8, ptr %37, i64 20
  store i8 %6, ptr %40, align 4
  tail call void @wmem_tree_insert32(ptr noundef %4, i32 noundef %39, ptr noundef %37)
  br label %.loopexit

41:                                               ; preds = %control_proc_invalid_collision.exit.thread
  %42 = tail call ptr @wmem_tree_lookup32(ptr noundef %4, i32 noundef %28)
  %.not42 = icmp eq ptr %42, null
  br i1 %.not42, label %59, label %43

43:                                               ; preds = %41
  %44 = getelementptr inbounds nuw i8, ptr %42, i64 20
  %45 = load i8, ptr %44, align 4
  %46 = icmp eq i8 %45, %6
  br i1 %46, label %.preheader, label %59

.preheader:                                       ; preds = %43, %proto_item_set_generated.exit
  %indvars.iv = phi i64 [ %indvars.iv.next, %proto_item_set_generated.exit ], [ 1, %43 ]
  %47 = getelementptr [5 x i32], ptr %42, i64 0, i64 %indvars.iv
  %48 = load i32, ptr %47, align 4
  %.not43 = icmp eq i32 %48, 0
  br i1 %.not43, label %proto_item_set_generated.exit, label %49

49:                                               ; preds = %.preheader
  %50 = load i32, ptr @hf_response_in_frame, align 4
  %51 = tail call ptr @proto_tree_add_uint(ptr noundef %2, i32 noundef %50, ptr noundef %0, i32 noundef 0, i32 noundef 0, i32 noundef %48)
  %.not.i44 = icmp eq ptr %51, null
  br i1 %.not.i44, label %proto_item_set_generated.exit, label %52

52:                                               ; preds = %49
  %53 = getelementptr inbounds nuw i8, ptr %51, i64 40
  %54 = load ptr, ptr %53, align 8
  %.not5.i = icmp eq ptr %54, null
  br i1 %.not5.i, label %proto_item_set_generated.exit, label %55

55:                                               ; preds = %52
  %56 = getelementptr inbounds nuw i8, ptr %54, i64 28
  %57 = load i32, ptr %56, align 4
  %58 = or i32 %57, 2
  store i32 %58, ptr %56, align 4
  br label %proto_item_set_generated.exit

proto_item_set_generated.exit:                    ; preds = %55, %52, %49, %.preheader
  %indvars.iv.next = add nuw nsw i64 %indvars.iv, 1
  %exitcond.not = icmp eq i64 %indvars.iv.next, 5
  br i1 %exitcond.not, label %.loopexit, label %.preheader, !llvm.loop !11

59:                                               ; preds = %43, %41
  %60 = tail call ptr @expert_add_info(ptr noundef %1, ptr noundef %3, ptr noundef nonnull @ei_control_proc_overlapping)
  br label %.loopexit

.loopexit:                                        ; preds = %proto_item_set_generated.exit, %35, %31, %59
  %.035 = phi ptr [ null, %59 ], [ null, %31 ], [ %37, %35 ], [ %42, %proto_item_set_generated.exit ]
  ret ptr %.035
}